; ModuleID = '27/1242.c'
source_filename = "27/1242.c"
target datalayout = "e-m:e-p270:32:32-p271:32:32-p272:64:64-i64:64-f80:128-n8:16:32:64-S128"
target triple = "x86_64-pc-linux-gnu"

@.str = private unnamed_addr constant [3 x i8] c"%d\00", align 1
@.str.1 = private unnamed_addr constant [10 x i8] c"%lf%lf%lf\00", align 1
@.str.2 = private unnamed_addr constant [19 x i8] c"x1=%.5lf;x2=%.5lf\0A\00", align 1
@.str.3 = private unnamed_addr constant [13 x i8] c"x1=x2=%.5lf\0A\00", align 1
@.str.4 = private unnamed_addr constant [33 x i8] c"x1=%.5lf+%.5lfi;x2=%.5lf-%.5lfi\0A\00", align 1

; Function Attrs: noinline nounwind uwtable
define dso_local i32 @main() #0 {
  %1 = alloca i32, align 4
  %2 = alloca i32, align 4
  %3 = alloca i32, align 4
  %4 = alloca double, align 8
  %5 = alloca double, align 8
  %6 = alloca double, align 8
  %7 = alloca double, align 8
  %8 = alloca double, align 8
  %9 = alloca double, align 8
  %10 = alloca double, align 8
  %11 = alloca double, align 8
  %12 = alloca double, align 8
  store i32 0, i32* %1, align 4
  %13 = call i32 (i8*, ...) @__isoc99_scanf(i8* getelementptr inbounds ([3 x i8], [3 x i8]* @.str, i64 0, i64 0), i32* %2)
  store i32 0, i32* %3, align 4
  br label %14

14:                                               ; preds = %133, %0
  %15 = load i32, i32* %3, align 4
  %16 = load i32, i32* %2, align 4
  %17 = icmp slt i32 %15, %16
  br i1 %17, label %18, label %136

18:                                               ; preds = %14
  %19 = call i32 (i8*, ...) @__isoc99_scanf(i8* getelementptr inbounds ([10 x i8], [10 x i8]* @.str.1, i64 0, i64 0), double* %4, double* %5, double* %6)
  %20 = load double, double* %5, align 8
  %21 = load double, double* %5, align 8
  %22 = fmul double %20, %21
  %23 = load double, double* %4, align 8
  %24 = fmul double 4.000000e+00, %23
  %25 = load double, double* %6, align 8
  %26 = fmul double %24, %25
  %27 = fsub double %22, %26
  %28 = fcmp ogt double %27, 0.000000e+00
  br i1 %28, label %29, label %63

29:                                               ; preds = %18
  %30 = load double, double* %5, align 8
  %31 = fneg double %30
  %32 = load double, double* %5, align 8
  %33 = load double, double* %5, align 8
  %34 = fmul double %32, %33
  %35 = load double, double* %4, align 8
  %36 = fmul double 4.000000e+00, %35
  %37 = load double, double* %6, align 8
  %38 = fmul double %36, %37
  %39 = fsub double %34, %38
  %40 = call double @sqrt(double %39) #3
  %41 = fadd double %31, %40
  %42 = load double, double* %4, align 8
  %43 = fmul double 2.000000e+00, %42
  %44 = fdiv double %41, %43
  store double %44, double* %7, align 8
  %45 = load double, double* %5, align 8
  %46 = fneg double %45
  %47 = load double, double* %5, align 8
  %48 = load double, double* %5, align 8
  %49 = fmul double %47, %48
  %50 = load double, double* %4, align 8
  %51 = fmul double 4.000000e+00, %50
  %52 = load double, double* %6, align 8
  %53 = fmul double %51, %52
  %54 = fsub double %49, %53
  %55 = call double @sqrt(double %54) #3
  %56 = fsub double %46, %55
  %57 = load double, double* %4, align 8
  %58 = fmul double 2.000000e+00, %57
  %59 = fdiv double %56, %58
  store double %59, double* %8, align 8
  %60 = load double, double* %7, align 8
  %61 = load double, double* %8, align 8
  %62 = call i32 (i8*, ...) @printf(i8* getelementptr inbounds ([19 x i8], [19 x i8]* @.str.2, i64 0, i64 0), double %60, double %61)
  br label %132

63:                                               ; preds = %18
  %64 = load double, double* %5, align 8
  %65 = load double, double* %5, align 8
  %66 = fmul double %64, %65
  %67 = load double, double* %4, align 8
  %68 = fmul double 4.000000e+00, %67
  %69 = load double, double* %6, align 8
  %70 = fmul double %68, %69
  %71 = fsub double %66, %70
  %72 = fcmp oeq double %71, 0.000000e+00
  br i1 %72, label %73, label %91

73:                                               ; preds = %63
  %74 = load double, double* %5, align 8
  %75 = fneg double %74
  %76 = load double, double* %5, align 8
  %77 = load double, double* %5, align 8
  %78 = fmul double %76, %77
  %79 = load double, double* %4, align 8
  %80 = fmul double 4.000000e+00, %79
  %81 = load double, double* %6, align 8
  %82 = fmul double %80, %81
  %83 = fsub double %78, %82
  %84 = call double @sqrt(double %83) #3
  %85 = fadd double %75, %84
  %86 = load double, double* %4, align 8
  %87 = fmul double 2.000000e+00, %86
  %88 = fdiv double %85, %87
  store double %88, double* %7, align 8
  %89 = load double, double* %7, align 8
  %90 = call i32 (i8*, ...) @printf(i8* getelementptr inbounds ([13 x i8], [13 x i8]* @.str.3, i64 0, i64 0), double %89)
  br label %131

91:                                               ; preds = %63
  %92 = load double, double* %5, align 8
  %93 = fneg double %92
  %94 = load double, double* %4, align 8
  %95 = fmul double 2.000000e+00, %94
  %96 = fdiv double %93, %95
  store double %96, double* %9, align 8
  %97 = load double, double* %5, align 8
  %98 = fneg double %97
  %99 = load double, double* %4, align 8
  %100 = fmul double 2.000000e+00, %99
  %101 = fdiv double %98, %100
  store double %101, double* %10, align 8
  %102 = load double, double* %4, align 8
  %103 = fmul double 4.000000e+00, %102
  %104 = load double, double* %6, align 8
  %105 = fmul double %103, %104
  %106 = load double, double* %5, align 8
  %107 = load double, double* %5, align 8
  %108 = fmul double %106, %107
  %109 = fsub double %105, %108
  %110 = call double @sqrt(double %109) #3
  %111 = load double, double* %4, align 8
  %112 = fmul double 2.000000e+00, %111
  %113 = fdiv double %110, %112
  store double %113, double* %11, align 8
  %114 = load double, double* %4, align 8
  %115 = fmul double 4.000000e+00, %114
  %116 = load double, double* %6, align 8
  %117 = fmul double %115, %116
  %118 = load double, double* %5, align 8
  %119 = load double, double* %5, align 8
  %120 = fmul double %118, %119
  %121 = fsub double %117, %120
  %122 = call double @sqrt(double %121) #3
  %123 = load double, double* %4, align 8
  %124 = fmul double 2.000000e+00, %123
  %125 = fdiv double %122, %124
  store double %125, double* %12, align 8
  %126 = load double, double* %9, align 8
  %127 = load double, double* %11, align 8
  %128 = load double, double* %10, align 8
  %129 = load double, double* %12, align 8
  %130 = call i32 (i8*, ...) @printf(i8* getelementptr inbounds ([33 x i8], [33 x i8]* @.str.4, i64 0, i64 0), double %126, double %127, double %128, double %129)
  br label %131

131:                                              ; preds = %91, %73
  br label %132

132:                                              ; preds = %131, %29
  br label %133

133:                                              ; preds = %132
  %134 = load i32, i32* %3, align 4
  %135 = add nsw i32 %134, 1
  store i32 %135, i32* %3, align 4
  br label %14

136:                                              ; preds = %14
  ret i32 0
}

declare dso_local i32 @__isoc99_scanf(i8*, ...) #1

; Function Attrs: nounwind
declare dso_local double @sqrt(double) #2

declare dso_local i32 @printf(i8*, ...) #1


!llvm.module.flags = !{!0}
!llvm.ident = !{!1}

!0 = !{i32 1, !"wchar_size", i32 4}
!1 = !{!"clang version 10.0.0-4ubuntu1 "}
